; Function Attrs: mustprogress nofree norecurse nosync nounwind willreturn memory(read, inaccessiblemem: none) uwtable
define noundef zeroext i1 @_ZNK32pxrInternal_v0_24__pxrReserved__10PcpNodeRef7IsInertEv(ptr noundef nonnull readonly align 8 captures(none) dereferenceable(16) %0) local_unnamed_addr #3 align 2 {
  %2 = load ptr, ptr %0, align 8
  %3 = getelementptr inbounds nuw i8, ptr %0, i64 8
  %4 = load i64, ptr %3, align 8
  %5 = getelementptr inbounds nuw i8, ptr %2, i64 16
  %6 = load ptr, ptr %5, align 8
  %7 = load ptr, ptr %6, align 8
  %8 = getelementptr inbounds %"struct.pxrInternal_v0_24__pxrReserved__::PcpPrimIndex_Graph::_Node", ptr %7, i64 %4, i32 4, i32 2
  %9 = load i32, ptr %8, align 4
  %10 = and i32 %9, 131072
  %.not = icmp eq i32 %10, 0
  br i1 %.not, label %11, label %18

11:                                               ; preds = %1
  %12 = getelementptr inbounds nuw i8, ptr %2, i64 32
  %13 = load ptr, ptr %12, align 8
  %14 = getelementptr inbounds %"struct.pxrInternal_v0_24__pxrReserved__::PcpPrimIndex_Graph::_UnsharedData", ptr %13, i64 %4, i32 2
  %15 = load i8, ptr %14, align 2
  %16 = and i8 %15, 2
  %17 = icmp ne i8 %16, 0
  br label %18

18:                                               ; preds = %11, %1
  %19 = phi i1 [ true, %1 ], [ %17, %11 ]
  ret i1 %19
}